	.file	"addfunc.c"
	.text
	.section	.rodata
.LC0:
	.string	"Hello World!"
	.align 8
.LC1:
	.string	"Calling add function with 10, 4"
.LC2:
	.string	"Addition : %d"
	.text
	.globl	main
	.type	main, @function
main:
.LFB0:
	.cfi_startproc
	pushq	%rbp
	.cfi_def_cfa_offset 16
	.cfi_offset 6, -16
	movq	%rsp, %rbp
	.cfi_def_cfa_register 6
	leaq	.LC0(%rip), %rax
	movq	%rax, %rdi
	call	puts@PLT
	leaq	.LC1(%rip), %rax
	movq	%rax, %rdi
	call	puts@PLT
	movl	$4, %esi
	movl	$10, %edi
	movl	$0, %eax
	call	add
	movl	%eax, %esi
	leaq	.LC2(%rip), %rax
	movq	%rax, %rdi
	movl	$0, %eax
	call	printf@PLT
	movl	$0, %eax
	popq	%rbp
	.cfi_def_cfa 7, 8
	ret
	.cfi_endproc
.LFE0:
	.size	main, .-main
	.globl	add
	.type	add, @function
add:
.LFB1:
	.cfi_startproc
	pushq	%rbp
	.cfi_def_cfa_offset 16
	.cfi_offset 6, -16
	movq	%rsp, %rbp
	.cfi_def_cfa_register 6
	movl	%edi, -4(%rbp)
	movl	%esi, -8(%rbp)
	movl	-4(%rbp), %edx
	movl	-8(%rbp), %eax
	addl	%edx, %eax
	popq	%rbp
	.cfi_def_cfa 7, 8
	ret
	.cfi_endproc
.LFE1:
	.size	add, .-add
	.ident	"GCC: (Debian 14.2.0-19) 14.2.0"
	.section	.note.GNU-stack,"",@progbits
